; Function Attrs: mustprogress nofree norecurse nosync nounwind willreturn memory(read, inaccessiblemem: none) uwtable
define internal { double, double } @_ZL22pj_axisswap_forward_2d5PJ_LPP8PJconsts(double %0, double %1, ptr noundef readonly captures(none) %2) #8 {
  %4 = alloca [2 x double], align 16
  %5 = getelementptr inbounds nuw i8, ptr %2, i64 88
  %6 = load ptr, ptr %5, align 8, !tbaa !40
  call void @llvm.lifetime.start.p0(i64 16, ptr nonnull %4) #13
  store double %0, ptr %4, align 16, !tbaa !70
  %7 = getelementptr inbounds nuw i8, ptr %4, i64 8
  store double %1, ptr %7, align 8, !tbaa !70
  %8 = load i32, ptr %6, align 4, !tbaa !42
  %9 = zext i32 %8 to i64
  %10 = getelementptr inbounds nuw [2 x double], ptr %4, i64 0, i64 %9
  %11 = load double, ptr %10, align 8, !tbaa !70
  %12 = getelementptr inbounds nuw i8, ptr %6, i64 16
  %13 = load i32, ptr %12, align 4, !tbaa !42
  %14 = sitofp i32 %13 to double
  %15 = fmul double %11, %14
  %16 = getelementptr inbounds nuw i8, ptr %6, i64 4
  %17 = load i32, ptr %16, align 4, !tbaa !42
  %18 = zext i32 %17 to i64
  %19 = getelementptr inbounds nuw [2 x double], ptr %4, i64 0, i64 %18
  %20 = load double, ptr %19, align 8, !tbaa !70
  %21 = getelementptr inbounds nuw i8, ptr %6, i64 20
  %22 = load i32, ptr %21, align 4, !tbaa !42
  %23 = sitofp i32 %22 to double
  %24 = fmul double %20, %23
  call void @llvm.lifetime.end.p0(i64 16, ptr nonnull %4) #13
  %.fca.0.insert = insertvalue { double, double } poison, double %15, 0
  %.fca.1.insert = insertvalue { double, double } %.fca.0.insert, double %24, 1
  ret { double, double } %.fca.1.insert
}